target datalayout = "e-m:e-p270:32:32-p271:32:32-p272:64:64-i64:64-i128:128-f80:128-n8:16:32:64-S128"
target triple = "x86_64-pc-linux-gnu"

%"class.std::vector.0" = type { %"struct.std::_Vector_base.1" }
%"struct.std::_Vector_base.1" = type { %"struct.std::_Vector_base<zxing::Ref<zxing::qrcode::Version>, std::allocator<zxing::Ref<zxing::qrcode::Version>>>::_Vector_impl" }
%"struct.std::_Vector_base<zxing::Ref<zxing::qrcode::Version>, std::allocator<zxing::Ref<zxing::qrcode::Version>>>::_Vector_impl" = type { %"struct.std::_Vector_base<zxing::Ref<zxing::qrcode::Version>, std::allocator<zxing::Ref<zxing::qrcode::Version>>>::_Vector_impl_data" }
%"struct.std::_Vector_base<zxing::Ref<zxing::qrcode::Version>, std::allocator<zxing::Ref<zxing::qrcode::Version>>>::_Vector_impl_data" = type { ptr, ptr, ptr }
%"class.zxing::Ref" = type { ptr }
%"class.zxing::ReaderErrorHandler" = type { %"class.zxing::ErrorHandler" }
%"class.zxing::ErrorHandler" = type { ptr, i32, i32, %"class.std::__cxx11::basic_string" }
%"class.std::__cxx11::basic_string" = type { %"struct.std::__cxx11::basic_string<char>::_Alloc_hider", i64, %union.anon }
%"struct.std::__cxx11::basic_string<char>::_Alloc_hider" = type { ptr }
%union.anon = type { i64, [8 x i8] }

@_ZN5zxing6qrcode7Version22N_VERSION_DECODE_INFOSE = hidden global i32 34, align 4
@_ZN5zxing6qrcode7Version8VERSIONSE = hidden global %"class.std::vector.0" zeroinitializer, align 8
@_ZN5zxing6qrcodeL10N_VERSIONSE = internal global i32 0, align 4
@.str = private unnamed_addr constant [39 x i8] c"versionNumber must be between 1 and 40\00", align 1
@_ZTVN5zxing12ErrorHandlerE = external unnamed_addr constant { [10 x ptr] }, align 8

; Function Attrs: mustprogress nounwind uwtable
define linkonce_odr hidden noundef ptr @_ZNK5zxing3RefINS_6qrcode7VersionEEcvPS2_Ev(ptr noundef nonnull align 8 dereferenceable(8) %0) #0 comdat align 2 {
  %2 = alloca ptr, align 8
  store ptr %0, ptr %2, align 8
  %3 = load ptr, ptr %2, align 8
  %4 = getelementptr inbounds %"class.zxing::Ref", ptr %3, i32 0, i32 0
  %5 = load ptr, ptr %4, align 8
  ret ptr %5
}

; Function Attrs: mustprogress nounwind uwtable
define linkonce_odr hidden noundef nonnull align 8 dereferenceable(8) ptr @_ZNSt6vectorIN5zxing3RefINS0_6qrcode7VersionEEESaIS4_EEixEm(ptr noundef nonnull align 8 dereferenceable(24) %0, i64 noundef %1) #0 comdat align 2 {
  %3 = alloca ptr, align 8
  %4 = alloca i64, align 8
  store ptr %0, ptr %3, align 8
  store i64 %1, ptr %4, align 8
  %5 = load ptr, ptr %3, align 8
  %6 = getelementptr inbounds %"struct.std::_Vector_base.1", ptr %5, i32 0, i32 0
  %7 = getelementptr inbounds %"struct.std::_Vector_base<zxing::Ref<zxing::qrcode::Version>, std::allocator<zxing::Ref<zxing::qrcode::Version>>>::_Vector_impl_data", ptr %6, i32 0, i32 0
  %8 = load ptr, ptr %7, align 8
  %9 = load i64, ptr %4, align 8
  %10 = getelementptr inbounds %"class.zxing::Ref", ptr %8, i64 %9
  ret ptr %10
}

; Function Attrs: mustprogress nounwind uwtable
define linkonce_odr hidden void @_ZN5zxing18ReaderErrorHandlerD2Ev(ptr noundef nonnull align 8 dereferenceable(48) %0) unnamed_addr #0 comdat align 2 {
  %2 = alloca ptr, align 8
  store ptr %0, ptr %2, align 8
  %3 = load ptr, ptr %2, align 8
  call void @_ZN5zxing12ErrorHandlerD2Ev(ptr noundef nonnull align 8 dereferenceable(48) %3) #4
  ret void
}

; Function Attrs: mustprogress uwtable
define linkonce_odr hidden void @_ZN5zxing18ReaderErrorHandlerC2EPKc(ptr noundef nonnull align 8 dereferenceable(48) %0, ptr noundef %1) unnamed_addr #1 comdat align 2 personality ptr @__gxx_personality_v0 {
  %3 = alloca ptr, align 8
  %4 = alloca ptr, align 8
  %5 = alloca ptr, align 8
  %6 = alloca i32, align 4
  store ptr %0, ptr %3, align 8
  store ptr %1, ptr %4, align 8
  %7 = load ptr, ptr %3, align 8
  %8 = load ptr, ptr %4, align 8
  call void @_ZN5zxing12ErrorHandlerC2EPKc(ptr noundef nonnull align 8 dereferenceable(48) %7, ptr noundef %8)
  store ptr getelementptr inbounds inrange(-16, 64) ({ [10 x ptr] }, ptr @_ZTVN5zxing18ReaderErrorHandlerE, i32 0, i32 0, i32 2), ptr %7, align 8
  %9 = load ptr, ptr %7, align 8
  %10 = getelementptr inbounds ptr, ptr %9, i64 5
  %11 = load ptr, ptr %10, align 8
  invoke void %11(ptr noundef nonnull align 8 dereferenceable(48) %7)
          to label %12 unwind label %13

12:                                               ; preds = %2
  ret void

13:                                               ; preds = %2
  %14 = landingpad { ptr, i32 }
          cleanup
  %15 = extractvalue { ptr, i32 } %14, 0
  store ptr %15, ptr %5, align 8
  %16 = extractvalue { ptr, i32 } %14, 1
  store i32 %16, ptr %6, align 4
  call void @_ZN5zxing12ErrorHandlerD2Ev(ptr noundef nonnull align 8 dereferenceable(48) %7) #4
  br label %17

17:                                               ; preds = %13
  %18 = load ptr, ptr %5, align 8
  %19 = load i32, ptr %6, align 4
  %20 = insertvalue { ptr, i32 } poison, ptr %18, 0
  %21 = insertvalue { ptr, i32 } %20, i32 %19, 1
  resume { ptr, i32 } %21
}

; Function Attrs: mustprogress nounwind uwtable
define linkonce_odr hidden void @_ZN5zxing12ErrorHandlerD2Ev(ptr noundef nonnull align 8 dereferenceable(48) %0) unnamed_addr #0 comdat align 2 {
  %2 = alloca ptr, align 8
  store ptr %0, ptr %2, align 8
  %3 = load ptr, ptr %2, align 8
  store ptr getelementptr inbounds inrange(-16, 64) ({ [10 x ptr] }, ptr @_ZTVN5zxing12ErrorHandlerE, i32 0, i32 0, i32 2), ptr %3, align 8
  %4 = getelementptr inbounds %"class.zxing::ErrorHandler", ptr %3, i32 0, i32 3
  call void @_ZNSt7__cxx1112basic_stringIcSt11char_traitsIcESaIcEED1Ev(ptr noundef nonnull align 8 dereferenceable(32) %4) #4
  ret void
}

; Function Attrs: mustprogress nounwind uwtable
define linkonce_odr hidden noundef i32 @_ZNK5zxing12ErrorHandler7ErrCodeEv(ptr noundef nonnull align 8 dereferenceable(48) %0) unnamed_addr #0 comdat align 2 {
  %2 = alloca ptr, align 8
  store ptr %0, ptr %2, align 8
  %3 = load ptr, ptr %2, align 8
  %4 = getelementptr inbounds %"class.zxing::ErrorHandler", ptr %3, i32 0, i32 2
  %5 = load i32, ptr %4, align 4
  ret i32 %5
}

; Function Attrs: mustprogress uwtable
define hidden noundef ptr @_ZN5zxing6qrcode7Version19getVersionForNumberEiRNS_12ErrorHandlerE(i32 noundef %0, ptr noundef nonnull align 8 dereferenceable(48) %1) #1 align 2 personality ptr @__gxx_personality_v0 {
  %3 = alloca ptr, align 8
  %4 = alloca i32, align 4
  %5 = alloca ptr, align 8
  %6 = alloca %"class.zxing::ReaderErrorHandler", align 8
  %7 = alloca ptr, align 8
  %8 = alloca i32, align 4
  store i32 %0, ptr %4, align 4
  store ptr %1, ptr %5, align 8
  %9 = load i32, ptr %4, align 4
  %10 = icmp slt i32 %9, 1
  br i1 %10, label %15, label %11

11:                                               ; preds = %2
  %12 = load i32, ptr %4, align 4
  %13 = load i32, ptr @_ZN5zxing6qrcodeL10N_VERSIONSE, align 4
  %14 = icmp sgt i32 %12, %13
  br i1 %14, label %15, label %23

15:                                               ; preds = %11, %2
  call void @_ZN5zxing18ReaderErrorHandlerC2EPKc(ptr noundef nonnull align 8 dereferenceable(48) %6, ptr noundef @.str)
  %16 = load ptr, ptr %5, align 8
  %17 = invoke noundef nonnull align 8 dereferenceable(48) ptr @_ZN5zxing12ErrorHandleraSERKS0_(ptr noundef nonnull align 8 dereferenceable(48) %16, ptr noundef nonnull align 8 dereferenceable(48) %6)
          to label %18 unwind label %19

18:                                               ; preds = %15
  call void @_ZN5zxing18ReaderErrorHandlerD2Ev(ptr noundef nonnull align 8 dereferenceable(48) %6) #4
  store ptr null, ptr %3, align 8
  br label %29

19:                                               ; preds = %15
  %20 = landingpad { ptr, i32 }
          cleanup
  %21 = extractvalue { ptr, i32 } %20, 0
  store ptr %21, ptr %7, align 8
  %22 = extractvalue { ptr, i32 } %20, 1
  store i32 %22, ptr %8, align 4
  call void @_ZN5zxing18ReaderErrorHandlerD2Ev(ptr noundef nonnull align 8 dereferenceable(48) %6) #4
  br label %31

23:                                               ; preds = %11
  %24 = load i32, ptr %4, align 4
  %25 = sub nsw i32 %24, 1
  %26 = sext i32 %25 to i64
  %27 = call noundef nonnull align 8 dereferenceable(8) ptr @_ZNSt6vectorIN5zxing3RefINS0_6qrcode7VersionEEESaIS4_EEixEm(ptr noundef nonnull align 8 dereferenceable(24) @_ZN5zxing6qrcode7Version8VERSIONSE, i64 noundef %26) #4
  %28 = call noundef ptr @_ZNK5zxing3RefINS_6qrcode7VersionEEcvPS2_Ev(ptr noundef nonnull align 8 dereferenceable(8) %27)
  store ptr %28, ptr %3, align 8
  br label %29

29:                                               ; preds = %23, %18
  %30 = load ptr, ptr %3, align 8
  ret ptr %30

31:                                               ; preds = %19
  %32 = load ptr, ptr %7, align 8
  %33 = load i32, ptr %8, align 4
  %34 = insertvalue { ptr, i32 } poison, ptr %32, 0
  %35 = insertvalue { ptr, i32 } %34, i32 %33, 1
  resume { ptr, i32 } %35
}

; Function Attrs: mustprogress nounwind uwtable
define linkonce_odr hidden noundef i32 @_ZNSt14numeric_limitsIiE3maxEv() #0 comdat align 2 {
  ret i32 2147483647
}

; Function Attrs: mustprogress uwtable
define hidden noundef ptr @_ZN5zxing6qrcode7Version24decodeVersionInformationEj(i32 noundef %0) #1 align 2 personality ptr @__gxx_personality_v0 {
  %2 = alloca ptr, align 8
  %3 = alloca i32, align 4
  %4 = alloca i32, align 4
  %5 = alloca i64, align 8
  %6 = alloca %"class.zxing::ErrorHandler", align 8
  %7 = alloca i32, align 4
  %8 = alloca i32, align 4
  %9 = alloca ptr, align 8
  %10 = alloca ptr, align 8
  %11 = alloca i32, align 4
  %12 = alloca i32, align 4
  %13 = alloca i32, align 4
  %14 = alloca ptr, align 8
  store i32 %0, ptr %3, align 4
  %15 = call noundef i32 @_ZNSt14numeric_limitsIiE3maxEv() #4
  store i32 %15, ptr %4, align 4
  store i64 0, ptr %5, align 8
  call void @_ZN5zxing12ErrorHandlerC1Ev(ptr noundef nonnull align 8 dereferenceable(48) %6)
  store i32 0, ptr %7, align 4
  br label %16

16:                                               ; preds = %57, %1
  %17 = load i32, ptr %7, align 4
  %18 = load i32, ptr @_ZN5zxing6qrcode7Version22N_VERSION_DECODE_INFOSE, align 4
  %19 = icmp slt i32 %17, %18
  br i1 %19, label %20, label %60

20:                                               ; preds = %16
  %21 = load i32, ptr %7, align 4
  %22 = sext i32 %21 to i64
  %23 = getelementptr inbounds [34 x i32], ptr @_ZN5zxing6qrcode7Version19VERSION_DECODE_INFOE, i64 0, i64 %22
  %24 = load i32, ptr %23, align 4
  store i32 %24, ptr %8, align 4
  %25 = load i32, ptr %8, align 4
  %26 = load i32, ptr %3, align 4
  %27 = icmp eq i32 %25, %26
  br i1 %27, label %28, label %43

28:                                               ; preds = %20
  %29 = load i32, ptr %7, align 4
  %30 = add nsw i32 %29, 7
  %31 = invoke noundef ptr @_ZN5zxing6qrcode7Version19getVersionForNumberEiRNS_12ErrorHandlerE(i32 noundef %30, ptr noundef nonnull align 8 dereferenceable(48) %6)
          to label %32 unwind label %37

32:                                               ; preds = %28
  store ptr %31, ptr %9, align 8
  %33 = invoke noundef i32 @_ZNK5zxing12ErrorHandler7ErrCodeEv(ptr noundef nonnull align 8 dereferenceable(48) %6)
          to label %34 unwind label %37

34:                                               ; preds = %32
  %35 = icmp ne i32 %33, 0
  br i1 %35, label %36, label %41

36:                                               ; preds = %34
  store ptr null, ptr %2, align 8
  store i32 1, ptr %12, align 4
  br label %75

37:                                               ; preds = %67, %63, %43, %32, %28
  %38 = landingpad { ptr, i32 }
          cleanup
  %39 = extractvalue { ptr, i32 } %38, 0
  store ptr %39, ptr %10, align 8
  %40 = extractvalue { ptr, i32 } %38, 1
  store i32 %40, ptr %11, align 4
  call void @_ZN5zxing12ErrorHandlerD2Ev(ptr noundef nonnull align 8 dereferenceable(48) %6) #4
  br label %77

41:                                               ; preds = %34
  %42 = load ptr, ptr %9, align 8
  store ptr %42, ptr %2, align 8
  store i32 1, ptr %12, align 4
  br label %75

43:                                               ; preds = %20
  %44 = load i32, ptr %3, align 4
  %45 = load i32, ptr %8, align 4
  %46 = invoke noundef i32 @_ZN5zxing6qrcode17FormatInformation16numBitsDifferingEii(i32 noundef %44, i32 noundef %45)
          to label %47 unwind label %37

47:                                               ; preds = %43
  store i32 %46, ptr %13, align 4
  %48 = load i32, ptr %13, align 4
  %49 = load i32, ptr %4, align 4
  %50 = icmp slt i32 %48, %49
  br i1 %50, label %51, label %56

51:                                               ; preds = %47
  %52 = load i32, ptr %7, align 4
  %53 = add nsw i32 %52, 7
  %54 = sext i32 %53 to i64
  store i64 %54, ptr %5, align 8
  %55 = load i32, ptr %13, align 4
  store i32 %55, ptr %4, align 4
  br label %56

56:                                               ; preds = %51, %47
  br label %57

57:                                               ; preds = %56
  %58 = load i32, ptr %7, align 4
  %59 = add nsw i32 %58, 1
  store i32 %59, ptr %7, align 4
  br label %16, !llvm.loop !8

60:                                               ; preds = %16
  %61 = load i32, ptr %4, align 4
  %62 = icmp sle i32 %61, 3
  br i1 %62, label %63, label %74

63:                                               ; preds = %60
  %64 = load i64, ptr %5, align 8
  %65 = trunc i64 %64 to i32
  %66 = invoke noundef ptr @_ZN5zxing6qrcode7Version19getVersionForNumberEiRNS_12ErrorHandlerE(i32 noundef %65, ptr noundef nonnull align 8 dereferenceable(48) %6)
          to label %67 unwind label %37

67:                                               ; preds = %63
  store ptr %66, ptr %14, align 8
  %68 = invoke noundef i32 @_ZNK5zxing12ErrorHandler7ErrCodeEv(ptr noundef nonnull align 8 dereferenceable(48) %6)
          to label %69 unwind label %37

69:                                               ; preds = %67
  %70 = icmp ne i32 %68, 0
  br i1 %70, label %71, label %72

71:                                               ; preds = %69
  store ptr null, ptr %2, align 8
  store i32 1, ptr %12, align 4
  br label %75

72:                                               ; preds = %69
  %73 = load ptr, ptr %14, align 8
  store ptr %73, ptr %2, align 8
  store i32 1, ptr %12, align 4
  br label %75

74:                                               ; preds = %60
  store ptr null, ptr %2, align 8
  store i32 1, ptr %12, align 4
  br label %75

75:                                               ; preds = %74, %72, %71, %41, %36
  call void @_ZN5zxing12ErrorHandlerD2Ev(ptr noundef nonnull align 8 dereferenceable(48) %6) #4
  %76 = load ptr, ptr %2, align 8
  ret ptr %76

77:                                               ; preds = %37
  %78 = load ptr, ptr %10, align 8
  %79 = load i32, ptr %11, align 4
  %80 = insertvalue { ptr, i32 } poison, ptr %78, 0
  %81 = insertvalue { ptr, i32 } %80, i32 %79, 1
  resume { ptr, i32 } %81
}