; Function Attrs: mustprogress uwtable
define hidden noundef ptr @_ZN5zxing6qrcode7Version24decodeVersionInformationEj(i32 noundef %0) local_unnamed_addr #2 align 2 personality ptr @__gxx_personality_v0 {
  %2 = alloca %"class.zxing::ReaderErrorHandler", align 8
  %3 = alloca %"class.zxing::ReaderErrorHandler", align 8
  %4 = alloca %"class.zxing::ErrorHandler", align 8
  call void @_ZN5zxing12ErrorHandlerC1Ev(ptr noundef nonnull align 8 dereferenceable(48) %4)
  %5 = load i32, ptr @_ZN5zxing6qrcode7Version22N_VERSION_DECODE_INFOSE, align 4
  %6 = icmp sgt i32 %5, 0
  br i1 %6, label %.lr.ph, label %._crit_edge.thread

.lr.ph:                                           ; preds = %1, %35
  %indvars.iv = phi i64 [ %indvars.iv.next, %35 ], [ 0, %1 ]
  %.01841 = phi i32 [ %.1, %35 ], [ 2147483647, %1 ]
  %.01940 = phi i64 [ %.120, %35 ], [ 0, %1 ]
  %7 = getelementptr inbounds [34 x i32], ptr @_ZN5zxing6qrcode7Version19VERSION_DECODE_INFOE, i64 0, i64 %indvars.iv
  %8 = load i32, ptr %7, align 4
  %9 = icmp eq i32 %8, %0
  br i1 %9, label %10, label %33

10:                                               ; preds = %.lr.ph
  %11 = trunc nuw nsw i64 %indvars.iv to i32
  %12 = add nuw nsw i32 %11, 7
  call void @llvm.lifetime.start.p0(i64 48, ptr nonnull %3)
  %13 = load i32, ptr @_ZN5zxing6qrcodeL10N_VERSIONSE, align 4
  %14 = icmp slt i32 %13, %12
  br i1 %14, label %15, label %23

15:                                               ; preds = %10
  invoke void @_ZN5zxing12ErrorHandlerC2EPKc(ptr noundef nonnull align 8 dereferenceable(48) %3, ptr noundef nonnull @.str)
          to label %.noexc unwind label %.loopexit.split-lp

.noexc:                                           ; preds = %15
  store ptr getelementptr inbounds inrange(-16, 64) (i8, ptr @_ZTVN5zxing18ReaderErrorHandlerE, i64 16), ptr %3, align 8
  %16 = getelementptr inbounds i8, ptr %3, i64 8
  store i32 3, ptr %16, align 8
  %17 = invoke noundef nonnull align 8 dereferenceable(48) ptr @_ZN5zxing12ErrorHandleraSERKS0_(ptr noundef nonnull align 8 dereferenceable(48) %4, ptr noundef nonnull align 8 dereferenceable(48) %3)
          to label %18 unwind label %20

18:                                               ; preds = %.noexc
  store ptr getelementptr inbounds inrange(-16, 64) (i8, ptr @_ZTVN5zxing12ErrorHandlerE, i64 16), ptr %3, align 8
  %19 = getelementptr inbounds i8, ptr %3, i64 16
  call void @_ZNSt7__cxx1112basic_stringIcSt11char_traitsIcESaIcEED1Ev(ptr noundef nonnull align 8 dereferenceable(32) %19) #18
  br label %29

20:                                               ; preds = %.noexc
  %21 = landingpad { ptr, i32 }
          cleanup
  store ptr getelementptr inbounds inrange(-16, 64) (i8, ptr @_ZTVN5zxing12ErrorHandlerE, i64 16), ptr %3, align 8
  %22 = getelementptr inbounds i8, ptr %3, i64 16
  call void @_ZNSt7__cxx1112basic_stringIcSt11char_traitsIcESaIcEED1Ev(ptr noundef nonnull align 8 dereferenceable(32) %22) #18
  br label %.body

23:                                               ; preds = %10
  %24 = load ptr, ptr @_ZN5zxing6qrcode7Version8VERSIONSE, align 8
  %25 = zext nneg i32 %12 to i64
  %26 = getelementptr %"class.zxing::Ref", ptr %24, i64 %25
  %27 = getelementptr i8, ptr %26, i64 -8
  %28 = load ptr, ptr %27, align 8
  br label %29

29:                                               ; preds = %23, %18
  %.0.i = phi ptr [ null, %18 ], [ %28, %23 ]
  call void @llvm.lifetime.end.p0(i64 48, ptr nonnull %3)
  %30 = getelementptr inbounds i8, ptr %4, i64 12
  %31 = load i32, ptr %30, align 4
  %.not25 = icmp eq i32 %31, 0
  %. = select i1 %.not25, ptr %.0.i, ptr null
  br label %._crit_edge.thread

.loopexit:                                        ; preds = %33
  %lpad.loopexit = landingpad { ptr, i32 }
          cleanup
  br label %.body

.loopexit.split-lp:                               ; preds = %15, %47
  %lpad.loopexit.split-lp = landingpad { ptr, i32 }
          cleanup
  br label %.body

.body:                                            ; preds = %.loopexit, %.loopexit.split-lp, %52, %20
  %eh.lpad-body = phi { ptr, i32 } [ %21, %20 ], [ %53, %52 ], [ %lpad.loopexit, %.loopexit ], [ %lpad.loopexit.split-lp, %.loopexit.split-lp ]
  store ptr getelementptr inbounds inrange(-16, 64) (i8, ptr @_ZTVN5zxing12ErrorHandlerE, i64 16), ptr %4, align 8
  %32 = getelementptr inbounds i8, ptr %4, i64 16
  call void @_ZNSt7__cxx1112basic_stringIcSt11char_traitsIcESaIcEED1Ev(ptr noundef nonnull align 8 dereferenceable(32) %32) #18
  resume { ptr, i32 } %eh.lpad-body

33:                                               ; preds = %.lr.ph
  %34 = invoke noundef i32 @_ZN5zxing6qrcode17FormatInformation16numBitsDifferingEii(i32 noundef %0, i32 noundef %8)
          to label %35 unwind label %.loopexit

35:                                               ; preds = %33
  %36 = icmp slt i32 %34, %.01841
  %37 = add nuw nsw i64 %indvars.iv, 7
  %.120 = select i1 %36, i64 %37, i64 %.01940
  %.1 = call i32 @llvm.smin.i32(i32 %34, i32 %.01841)
  %indvars.iv.next = add nuw nsw i64 %indvars.iv, 1
  %38 = load i32, ptr @_ZN5zxing6qrcode7Version22N_VERSION_DECODE_INFOSE, align 4
  %39 = sext i32 %38 to i64
  %40 = icmp slt i64 %indvars.iv.next, %39
  br i1 %40, label %.lr.ph, label %._crit_edge, !llvm.loop !9

._crit_edge:                                      ; preds = %35
  %41 = icmp slt i32 %.1, 4
  br i1 %41, label %42, label %._crit_edge.thread

42:                                               ; preds = %._crit_edge
  %43 = trunc i64 %.120 to i32
  call void @llvm.lifetime.start.p0(i64 48, ptr nonnull %2)
  %44 = icmp slt i32 %43, 1
  %45 = load i32, ptr @_ZN5zxing6qrcodeL10N_VERSIONSE, align 4
  %46 = icmp slt i32 %45, %43
  %or.cond.i27 = select i1 %44, i1 true, i1 %46
  br i1 %or.cond.i27, label %47, label %55

47:                                               ; preds = %42
  invoke void @_ZN5zxing12ErrorHandlerC2EPKc(ptr noundef nonnull align 8 dereferenceable(48) %2, ptr noundef nonnull @.str)
          to label %.noexc29 unwind label %.loopexit.split-lp

.noexc29:                                         ; preds = %47
  store ptr getelementptr inbounds inrange(-16, 64) (i8, ptr @_ZTVN5zxing18ReaderErrorHandlerE, i64 16), ptr %2, align 8
  %48 = getelementptr inbounds i8, ptr %2, i64 8
  store i32 3, ptr %48, align 8
  %49 = invoke noundef nonnull align 8 dereferenceable(48) ptr @_ZN5zxing12ErrorHandleraSERKS0_(ptr noundef nonnull align 8 dereferenceable(48) %4, ptr noundef nonnull align 8 dereferenceable(48) %2)
          to label %50 unwind label %52

50:                                               ; preds = %.noexc29
  store ptr getelementptr inbounds inrange(-16, 64) (i8, ptr @_ZTVN5zxing12ErrorHandlerE, i64 16), ptr %2, align 8
  %51 = getelementptr inbounds i8, ptr %2, i64 16
  call void @_ZNSt7__cxx1112basic_stringIcSt11char_traitsIcESaIcEED1Ev(ptr noundef nonnull align 8 dereferenceable(32) %51) #18
  br label %61

52:                                               ; preds = %.noexc29
  %53 = landingpad { ptr, i32 }
          cleanup
  store ptr getelementptr inbounds inrange(-16, 64) (i8, ptr @_ZTVN5zxing12ErrorHandlerE, i64 16), ptr %2, align 8
  %54 = getelementptr inbounds i8, ptr %2, i64 16
  call void @_ZNSt7__cxx1112basic_stringIcSt11char_traitsIcESaIcEED1Ev(ptr noundef nonnull align 8 dereferenceable(32) %54) #18
  br label %.body

55:                                               ; preds = %42
  %56 = load ptr, ptr @_ZN5zxing6qrcode7Version8VERSIONSE, align 8
  %57 = and i64 %.120, 2147483647
  %58 = getelementptr %"class.zxing::Ref", ptr %56, i64 %57
  %59 = getelementptr i8, ptr %58, i64 -8
  %60 = load ptr, ptr %59, align 8
  br label %61

61:                                               ; preds = %55, %50
  %.0.i28 = phi ptr [ null, %50 ], [ %60, %55 ]
  call void @llvm.lifetime.end.p0(i64 48, ptr nonnull %2)
  %62 = getelementptr inbounds i8, ptr %4, i64 12
  %63 = load i32, ptr %62, align 4
  %.not = icmp eq i32 %63, 0
  %.26 = select i1 %.not, ptr %.0.i28, ptr null
  br label %._crit_edge.thread

._crit_edge.thread:                               ; preds = %1, %._crit_edge, %61, %29
  %.0 = phi ptr [ %., %29 ], [ %.26, %61 ], [ null, %._crit_edge ], [ null, %1 ]
  store ptr getelementptr inbounds inrange(-16, 64) (i8, ptr @_ZTVN5zxing12ErrorHandlerE, i64 16), ptr %4, align 8
  %64 = getelementptr inbounds i8, ptr %4, i64 16
  call void @_ZNSt7__cxx1112basic_stringIcSt11char_traitsIcESaIcEED1Ev(ptr noundef nonnull align 8 dereferenceable(32) %64) #18
  ret ptr %.0
}